target datalayout = "e-m:e-p270:32:32-p271:32:32-p272:64:64-i64:64-i128:128-f80:128-n8:16:32:64-S128"
target triple = "x86_64-pc-linux-gnu"

%struct.Bac_Man_t_ = type { ptr, ptr, ptr, ptr, i32, i32, ptr, ptr, ptr, %struct.Vec_Int_t_, %struct.Vec_Int_t_, %struct.Vec_Int_t_, %struct.Vec_Int_t_, ptr, ptr, [4 x i32], [73 x ptr], [73 x ptr] }
%struct.Vec_Int_t_ = type { i32, i32, ptr }
%struct.Bac_Ntk_t_ = type { ptr, i32, i32, i32, i32, i32, i32, %struct.Vec_Int_t_, %struct.Vec_Int_t_, %struct.Vec_Int_t_, %struct.Vec_Str_t_, %struct.Vec_Int_t_, %struct.Vec_Int_t_, %struct.Vec_Int_t_, %struct.Vec_Int_t_, %struct.Vec_Int_t_, %struct.Vec_Int_t_, %struct.Vec_Int_t_ }
%struct.Vec_Str_t_ = type { i32, i32, ptr }

; Function Attrs: nounwind uwtable
define internal i32 @Bac_ManNtkNum(ptr noundef %0) #0 {
  %2 = alloca ptr, align 8
  store ptr %0, ptr %2, align 8
  %3 = load ptr, ptr %2, align 8
  %4 = getelementptr inbounds %struct.Bac_Man_t_, ptr %3, i32 0, i32 5
  %5 = load i32, ptr %4, align 4
  ret i32 %5
}

; Function Attrs: nounwind uwtable
define internal i32 @Bac_ManNtkIsOk(ptr noundef %0, i32 noundef %1) #0 {
  %3 = alloca ptr, align 8
  %4 = alloca i32, align 4
  store ptr %0, ptr %3, align 8
  store i32 %1, ptr %4, align 4
  %5 = load i32, ptr %4, align 4
  %6 = icmp sgt i32 %5, 0
  br i1 %6, label %7, label %12

7:                                                ; preds = %2
  %8 = load i32, ptr %4, align 4
  %9 = load ptr, ptr %3, align 8
  %10 = call i32 @Bac_ManNtkNum(ptr noundef %9)
  %11 = icmp sle i32 %8, %10
  br label %12

12:                                               ; preds = %7, %2
  %13 = phi i1 [ false, %2 ], [ %11, %7 ]
  %14 = zext i1 %13 to i32
  ret i32 %14
}

; Function Attrs: nounwind uwtable
define internal void @Vec_IntWriteEntry(ptr noundef %0, i32 noundef %1, i32 noundef %2) #0 {
  %4 = alloca ptr, align 8
  %5 = alloca i32, align 4
  %6 = alloca i32, align 4
  store ptr %0, ptr %4, align 8
  store i32 %1, ptr %5, align 4
  store i32 %2, ptr %6, align 4
  %7 = load i32, ptr %6, align 4
  %8 = load ptr, ptr %4, align 8
  %9 = getelementptr inbounds %struct.Vec_Int_t_, ptr %8, i32 0, i32 2
  %10 = load ptr, ptr %9, align 8
  %11 = load i32, ptr %5, align 4
  %12 = sext i32 %11 to i64
  %13 = getelementptr inbounds i32, ptr %10, i64 %12
  store i32 %7, ptr %13, align 4
  ret void
}

; Function Attrs: nounwind uwtable
define internal i32 @Bac_ObjCopy(ptr noundef %0, i32 noundef %1) #0 {
  %3 = alloca ptr, align 8
  %4 = alloca i32, align 4
  store ptr %0, ptr %3, align 8
  store i32 %1, ptr %4, align 4
  %5 = load ptr, ptr %3, align 8
  %6 = getelementptr inbounds %struct.Bac_Ntk_t_, ptr %5, i32 0, i32 15
  %7 = load i32, ptr %4, align 4
  %8 = call i32 @Vec_IntEntry(ptr noundef %6, i32 noundef %7)
  ret i32 %8
}

; Function Attrs: nounwind uwtable
define internal ptr @Bac_ManNtk(ptr noundef %0, i32 noundef %1) #0 {
  %3 = alloca ptr, align 8
  %4 = alloca i32, align 4
  store ptr %0, ptr %3, align 8
  store i32 %1, ptr %4, align 4
  %5 = load ptr, ptr %3, align 8
  %6 = load i32, ptr %4, align 4
  %7 = call i32 @Bac_ManNtkIsOk(ptr noundef %5, i32 noundef %6)
  %8 = icmp ne i32 %7, 0
  br i1 %8, label %9, label %16

9:                                                ; preds = %2
  %10 = load ptr, ptr %3, align 8
  %11 = getelementptr inbounds %struct.Bac_Man_t_, ptr %10, i32 0, i32 6
  %12 = load ptr, ptr %11, align 8
  %13 = load i32, ptr %4, align 4
  %14 = sext i32 %13 to i64
  %15 = getelementptr inbounds %struct.Bac_Ntk_t_, ptr %12, i64 %14
  br label %17

16:                                               ; preds = %2
  br label %17

17:                                               ; preds = %16, %9
  %18 = phi ptr [ %15, %9 ], [ null, %16 ]
  ret ptr %18
}

; Function Attrs: nounwind uwtable
define internal i32 @Vec_IntEntry(ptr noundef %0, i32 noundef %1) #0 {
  %3 = alloca ptr, align 8
  %4 = alloca i32, align 4
  store ptr %0, ptr %3, align 8
  store i32 %1, ptr %4, align 4
  %5 = load ptr, ptr %3, align 8
  %6 = getelementptr inbounds %struct.Vec_Int_t_, ptr %5, i32 0, i32 2
  %7 = load ptr, ptr %6, align 8
  %8 = load i32, ptr %4, align 4
  %9 = sext i32 %8 to i64
  %10 = getelementptr inbounds i32, ptr %7, i64 %9
  %11 = load i32, ptr %10, align 4
  ret i32 %11
}

; Function Attrs: nounwind uwtable
define internal i32 @Vec_IntSize(ptr noundef %0) #0 {
  %2 = alloca ptr, align 8
  store ptr %0, ptr %2, align 8
  %3 = load ptr, ptr %2, align 8
  %4 = getelementptr inbounds %struct.Vec_Int_t_, ptr %3, i32 0, i32 1
  %5 = load i32, ptr %4, align 4
  ret i32 %5
}

; Function Attrs: nounwind uwtable
define void @Bac_ManRemapBarbufs(ptr noundef %0, ptr noundef %1) #0 {
  %3 = alloca ptr, align 8
  %4 = alloca ptr, align 8
  %5 = alloca ptr, align 8
  %6 = alloca i32, align 4
  %7 = alloca i32, align 4
  store ptr %0, ptr %3, align 8
  store ptr %1, ptr %4, align 8
  %8 = load ptr, ptr %3, align 8
  %9 = getelementptr inbounds %struct.Bac_Man_t_, ptr %8, i32 0, i32 9
  %10 = load ptr, ptr %4, align 8
  %11 = getelementptr inbounds %struct.Bac_Man_t_, ptr %10, i32 0, i32 9
  call void @Vec_IntAppend(ptr noundef %9, ptr noundef %11)
  %12 = load ptr, ptr %3, align 8
  %13 = getelementptr inbounds %struct.Bac_Man_t_, ptr %12, i32 0, i32 10
  %14 = load ptr, ptr %4, align 8
  %15 = getelementptr inbounds %struct.Bac_Man_t_, ptr %14, i32 0, i32 10
  call void @Vec_IntAppend(ptr noundef %13, ptr noundef %15)
  %16 = load ptr, ptr %3, align 8
  %17 = getelementptr inbounds %struct.Bac_Man_t_, ptr %16, i32 0, i32 11
  %18 = load ptr, ptr %4, align 8
  %19 = getelementptr inbounds %struct.Bac_Man_t_, ptr %18, i32 0, i32 11
  call void @Vec_IntAppend(ptr noundef %17, ptr noundef %19)
  %20 = load ptr, ptr %3, align 8
  %21 = getelementptr inbounds %struct.Bac_Man_t_, ptr %20, i32 0, i32 12
  %22 = load ptr, ptr %4, align 8
  %23 = getelementptr inbounds %struct.Bac_Man_t_, ptr %22, i32 0, i32 12
  call void @Vec_IntAppend(ptr noundef %21, ptr noundef %23)
  store i32 0, ptr %7, align 4
  br label %24

24:                                               ; preds = %50, %2
  %25 = load i32, ptr %7, align 4
  %26 = load ptr, ptr %4, align 8
  %27 = getelementptr inbounds %struct.Bac_Man_t_, ptr %26, i32 0, i32 12
  %28 = call i32 @Vec_IntSize(ptr noundef %27)
  %29 = icmp slt i32 %25, %28
  br i1 %29, label %30, label %35

30:                                               ; preds = %24
  %31 = load ptr, ptr %4, align 8
  %32 = getelementptr inbounds %struct.Bac_Man_t_, ptr %31, i32 0, i32 12
  %33 = load i32, ptr %7, align 4
  %34 = call i32 @Vec_IntEntry(ptr noundef %32, i32 noundef %33)
  store i32 %34, ptr %6, align 4
  br label %35

35:                                               ; preds = %30, %24
  %36 = phi i1 [ false, %24 ], [ true, %30 ]
  br i1 %36, label %37, label %53

37:                                               ; preds = %35
  %38 = load ptr, ptr %4, align 8
  %39 = load ptr, ptr %4, align 8
  %40 = getelementptr inbounds %struct.Bac_Man_t_, ptr %39, i32 0, i32 11
  %41 = load i32, ptr %7, align 4
  %42 = call i32 @Vec_IntEntry(ptr noundef %40, i32 noundef %41)
  %43 = call ptr @Bac_ManNtk(ptr noundef %38, i32 noundef %42)
  store ptr %43, ptr %5, align 8
  %44 = load ptr, ptr %3, align 8
  %45 = getelementptr inbounds %struct.Bac_Man_t_, ptr %44, i32 0, i32 12
  %46 = load i32, ptr %7, align 4
  %47 = load ptr, ptr %5, align 8
  %48 = load i32, ptr %6, align 4
  %49 = call i32 @Bac_ObjCopy(ptr noundef %47, i32 noundef %48)
  call void @Vec_IntWriteEntry(ptr noundef %45, i32 noundef %46, i32 noundef %49)
  br label %50

50:                                               ; preds = %37
  %51 = load i32, ptr %7, align 4
  %52 = add nsw i32 %51, 1
  store i32 %52, ptr %7, align 4
  br label %24, !llvm.loop !21

53:                                               ; preds = %35
  store i32 0, ptr %7, align 4
  br label %54

54:                                               ; preds = %80, %53
  %55 = load i32, ptr %7, align 4
  %56 = load ptr, ptr %4, align 8
  %57 = getelementptr inbounds %struct.Bac_Man_t_, ptr %56, i32 0, i32 10
  %58 = call i32 @Vec_IntSize(ptr noundef %57)
  %59 = icmp slt i32 %55, %58
  br i1 %59, label %60, label %65

60:                                               ; preds = %54
  %61 = load ptr, ptr %4, align 8
  %62 = getelementptr inbounds %struct.Bac_Man_t_, ptr %61, i32 0, i32 10
  %63 = load i32, ptr %7, align 4
  %64 = call i32 @Vec_IntEntry(ptr noundef %62, i32 noundef %63)
  store i32 %64, ptr %6, align 4
  br label %65

65:                                               ; preds = %60, %54
  %66 = phi i1 [ false, %54 ], [ true, %60 ]
  br i1 %66, label %67, label %83

67:                                               ; preds = %65
  %68 = load ptr, ptr %4, align 8
  %69 = load ptr, ptr %4, align 8
  %70 = getelementptr inbounds %struct.Bac_Man_t_, ptr %69, i32 0, i32 9
  %71 = load i32, ptr %7, align 4
  %72 = call i32 @Vec_IntEntry(ptr noundef %70, i32 noundef %71)
  %73 = call ptr @Bac_ManNtk(ptr noundef %68, i32 noundef %72)
  store ptr %73, ptr %5, align 8
  %74 = load ptr, ptr %3, align 8
  %75 = getelementptr inbounds %struct.Bac_Man_t_, ptr %74, i32 0, i32 10
  %76 = load i32, ptr %7, align 4
  %77 = load ptr, ptr %5, align 8
  %78 = load i32, ptr %6, align 4
  %79 = call i32 @Bac_ObjCopy(ptr noundef %77, i32 noundef %78)
  call void @Vec_IntWriteEntry(ptr noundef %75, i32 noundef %76, i32 noundef %79)
  br label %80

80:                                               ; preds = %67
  %81 = load i32, ptr %7, align 4
  %82 = add nsw i32 %81, 1
  store i32 %82, ptr %7, align 4
  br label %54, !llvm.loop !22

83:                                               ; preds = %65
  ret void
}