; Function Attrs: nounwind uwtable
define void @Bac_ManRemapBarbufs(ptr noundef captures(none) %0, ptr noundef readonly captures(none) %1) local_unnamed_addr #0 {
  %3 = getelementptr inbounds nuw i8, ptr %0, i64 64
  %4 = getelementptr inbounds nuw i8, ptr %1, i64 64
  tail call fastcc void @Vec_IntAppend(ptr noundef nonnull %3, ptr noundef nonnull %4)
  %5 = getelementptr inbounds nuw i8, ptr %0, i64 80
  %6 = getelementptr inbounds nuw i8, ptr %1, i64 80
  tail call fastcc void @Vec_IntAppend(ptr noundef nonnull %5, ptr noundef nonnull %6)
  %7 = getelementptr inbounds nuw i8, ptr %0, i64 96
  %8 = getelementptr inbounds nuw i8, ptr %1, i64 96
  tail call fastcc void @Vec_IntAppend(ptr noundef nonnull %7, ptr noundef nonnull %8)
  %9 = getelementptr inbounds nuw i8, ptr %0, i64 112
  %10 = getelementptr inbounds nuw i8, ptr %1, i64 112
  tail call fastcc void @Vec_IntAppend(ptr noundef nonnull %9, ptr noundef nonnull %10)
  %11 = getelementptr i8, ptr %1, i64 116
  %.val3346 = load i32, ptr %11, align 4
  %12 = icmp sgt i32 %.val3346, 0
  br i1 %12, label %Bac_ManNtkIsOk.exit.i.lr.ph, label %.critedge.preheader

Bac_ManNtkIsOk.exit.i.lr.ph:                      ; preds = %2
  %13 = getelementptr i8, ptr %1, i64 120
  %14 = getelementptr i8, ptr %1, i64 104
  %15 = getelementptr i8, ptr %1, i64 36
  %16 = getelementptr inbounds nuw i8, ptr %1, i64 40
  %17 = getelementptr i8, ptr %0, i64 120
  br label %Bac_ManNtkIsOk.exit.i

.critedge.preheader:                              ; preds = %Bac_ManNtkIsOk.exit.i, %2
  %18 = getelementptr i8, ptr %1, i64 84
  %.val48 = load i32, ptr %18, align 4
  %19 = icmp sgt i32 %.val48, 0
  br i1 %19, label %Bac_ManNtkIsOk.exit.i42.lr.ph, label %.critedge2

Bac_ManNtkIsOk.exit.i42.lr.ph:                    ; preds = %.critedge.preheader
  %20 = getelementptr i8, ptr %1, i64 88
  %21 = getelementptr i8, ptr %1, i64 72
  %22 = getelementptr i8, ptr %1, i64 36
  %23 = getelementptr inbounds nuw i8, ptr %1, i64 40
  %24 = getelementptr i8, ptr %0, i64 88
  br label %Bac_ManNtkIsOk.exit.i42

Bac_ManNtkIsOk.exit.i:                            ; preds = %Bac_ManNtkIsOk.exit.i.lr.ph, %Bac_ManNtkIsOk.exit.i
  %indvars.iv = phi i64 [ 0, %Bac_ManNtkIsOk.exit.i.lr.ph ], [ %indvars.iv.next, %Bac_ManNtkIsOk.exit.i ]
  %.val37 = load ptr, ptr %13, align 8
  %25 = getelementptr inbounds nuw i32, ptr %.val37, i64 %indvars.iv
  %26 = load i32, ptr %25, align 4
  %.val36 = load ptr, ptr %14, align 8
  %27 = getelementptr inbounds nuw i32, ptr %.val36, i64 %indvars.iv
  %28 = load i32, ptr %27, align 4
  %29 = icmp sgt i32 %28, 0
  tail call void @llvm.assume(i1 %29)
  %.val.i.i = load i32, ptr %15, align 4
  %.not4.i = icmp sle i32 %28, %.val.i.i
  tail call void @llvm.assume(i1 %.not4.i)
  %30 = load ptr, ptr %16, align 8
  %31 = zext nneg i32 %28 to i64
  %32 = getelementptr %struct.Bac_Ntk_t_, ptr %30, i64 %31, i32 15, i32 2
  %.val41 = load ptr, ptr %32, align 8
  %33 = sext i32 %26 to i64
  %34 = getelementptr inbounds i32, ptr %.val41, i64 %33
  %35 = load i32, ptr %34, align 4
  %.val38 = load ptr, ptr %17, align 8
  %36 = getelementptr inbounds nuw i32, ptr %.val38, i64 %indvars.iv
  store i32 %35, ptr %36, align 4
  %indvars.iv.next = add nuw nsw i64 %indvars.iv, 1
  %.val33 = load i32, ptr %11, align 4
  %37 = sext i32 %.val33 to i64
  %38 = icmp slt i64 %indvars.iv.next, %37
  br i1 %38, label %Bac_ManNtkIsOk.exit.i, label %.critedge.preheader, !llvm.loop !24

Bac_ManNtkIsOk.exit.i42:                          ; preds = %Bac_ManNtkIsOk.exit.i42.lr.ph, %Bac_ManNtkIsOk.exit.i42
  %indvars.iv51 = phi i64 [ 0, %Bac_ManNtkIsOk.exit.i42.lr.ph ], [ %indvars.iv.next52, %Bac_ManNtkIsOk.exit.i42 ]
  %.val35 = load ptr, ptr %20, align 8
  %39 = getelementptr inbounds nuw i32, ptr %.val35, i64 %indvars.iv51
  %40 = load i32, ptr %39, align 4
  %.val34 = load ptr, ptr %21, align 8
  %41 = getelementptr inbounds nuw i32, ptr %.val34, i64 %indvars.iv51
  %42 = load i32, ptr %41, align 4
  %43 = icmp sgt i32 %42, 0
  tail call void @llvm.assume(i1 %43)
  %.val.i.i43 = load i32, ptr %22, align 4
  %.not4.i44 = icmp sle i32 %42, %.val.i.i43
  tail call void @llvm.assume(i1 %.not4.i44)
  %44 = load ptr, ptr %23, align 8
  %45 = zext nneg i32 %42 to i64
  %46 = getelementptr %struct.Bac_Ntk_t_, ptr %44, i64 %45, i32 15, i32 2
  %.val40 = load ptr, ptr %46, align 8
  %47 = sext i32 %40 to i64
  %48 = getelementptr inbounds i32, ptr %.val40, i64 %47
  %49 = load i32, ptr %48, align 4
  %.val39 = load ptr, ptr %24, align 8
  %50 = getelementptr inbounds nuw i32, ptr %.val39, i64 %indvars.iv51
  store i32 %49, ptr %50, align 4
  %indvars.iv.next52 = add nuw nsw i64 %indvars.iv51, 1
  %.val = load i32, ptr %18, align 4
  %51 = sext i32 %.val to i64
  %52 = icmp slt i64 %indvars.iv.next52, %51
  br i1 %52, label %Bac_ManNtkIsOk.exit.i42, label %.critedge2, !llvm.loop !25

.critedge2:                                       ; preds = %Bac_ManNtkIsOk.exit.i42, %.critedge.preheader
  ret void
}